; Function Attrs: nofree norecurse nosync nounwind memory(argmem: readwrite) uwtable
define internal void @PredictorAdd7_C(ptr noundef readonly captures(none) %0, ptr noundef readonly captures(none) %1, i32 noundef %2, ptr noalias noundef captures(none) %3) #2 {
  %5 = icmp sgt i32 %2, 0
  br i1 %5, label %.lr.ph.preheader, label %._crit_edge

.lr.ph.preheader:                                 ; preds = %4
  %wide.trip.count = zext nneg i32 %2 to i64
  %scevgep = getelementptr i8, ptr %3, i64 -4
  %load_initial = load i32, ptr %scevgep, align 4
  br label %.lr.ph

.lr.ph:                                           ; preds = %.lr.ph.preheader, %.lr.ph
  %store_forwarded = phi i32 [ %load_initial, %.lr.ph.preheader ], [ %24, %.lr.ph ]
  %indvars.iv = phi i64 [ 0, %.lr.ph.preheader ], [ %indvars.iv.next, %.lr.ph ]
  %6 = getelementptr i32, ptr %3, i64 %indvars.iv
  %7 = getelementptr inbounds nuw i32, ptr %1, i64 %indvars.iv
  %8 = load i32, ptr %7, align 4, !tbaa !3
  %9 = xor i32 %8, %store_forwarded
  %10 = lshr i32 %9, 1
  %11 = and i32 %10, 2139062143
  %12 = and i32 %8, %store_forwarded
  %13 = add i32 %11, %12
  %14 = getelementptr inbounds nuw i32, ptr %0, i64 %indvars.iv
  %15 = load i32, ptr %14, align 4, !tbaa !3
  %16 = and i32 %15, -16711936
  %17 = and i32 %13, -16711936
  %18 = add i32 %17, %16
  %19 = and i32 %15, 16711935
  %20 = and i32 %13, 16711935
  %21 = add nuw nsw i32 %20, %19
  %22 = and i32 %18, -16711936
  %23 = and i32 %21, 16711935
  %24 = or disjoint i32 %22, %23
  store i32 %24, ptr %6, align 4, !tbaa !3
  %indvars.iv.next = add nuw nsw i64 %indvars.iv, 1
  %exitcond.not = icmp eq i64 %indvars.iv.next, %wide.trip.count
  br i1 %exitcond.not, label %._crit_edge, label %.lr.ph, !llvm.loop !72

._crit_edge:                                      ; preds = %.lr.ph, %4
  ret void
}